; ModuleID = '38/184.c'
source_filename = "38/184.c"
target datalayout = "e-m:e-p270:32:32-p271:32:32-p272:64:64-i64:64-f80:128-n8:16:32:64-S128"
target triple = "x86_64-pc-linux-gnu"

@.str = private unnamed_addr constant [3 x i8] c"%d\00", align 1
@.str.1 = private unnamed_addr constant [4 x i8] c"%lf\00", align 1
@.str.2 = private unnamed_addr constant [2 x i8] c"\0A\00", align 1
@.str.3 = private unnamed_addr constant [7 x i8] c"\0A%.5lf\00", align 1

; Function Attrs: noinline nounwind uwtable
define dso_local i32 @main() #0 {
  %1 = alloca i32, align 4
  %2 = alloca [10000 x double], align 16
  %3 = alloca double, align 8
  %4 = alloca double, align 8
  %5 = alloca i32, align 4
  %6 = alloca i32, align 4
  %7 = alloca i32, align 4
  %8 = alloca i32, align 4
  %9 = alloca i32, align 4
  store i32 0, i32* %1, align 4
  store i32 0, i32* %9, align 4
  %10 = call i32 (i8*, ...) @__isoc99_scanf(i8* getelementptr inbounds ([3 x i8], [3 x i8]* @.str, i64 0, i64 0), i32* %5)
  store i32 1, i32* %7, align 4
  br label %11

11:                                               ; preds = %75, %0
  %12 = load i32, i32* %7, align 4
  %13 = load i32, i32* %5, align 4
  %14 = icmp sle i32 %12, %13
  br i1 %14, label %15, label %78

15:                                               ; preds = %11
  %16 = call i32 (i8*, ...) @__isoc99_scanf(i8* getelementptr inbounds ([3 x i8], [3 x i8]* @.str, i64 0, i64 0), i32* %6)
  store i32 1, i32* %8, align 4
  store double 0.000000e+00, double* %3, align 8
  br label %17

17:                                               ; preds = %34, %15
  %18 = load i32, i32* %8, align 4
  %19 = load i32, i32* %6, align 4
  %20 = icmp sle i32 %18, %19
  br i1 %20, label %21, label %37

21:                                               ; preds = %17
  %22 = getelementptr inbounds [10000 x double], [10000 x double]* %2, i64 0, i64 0
  %23 = load i32, i32* %8, align 4
  %24 = sext i32 %23 to i64
  %25 = getelementptr inbounds double, double* %22, i64 %24
  %26 = call i32 (i8*, ...) @__isoc99_scanf(i8* getelementptr inbounds ([4 x i8], [4 x i8]* @.str.1, i64 0, i64 0), double* %25)
  %27 = getelementptr inbounds [10000 x double], [10000 x double]* %2, i64 0, i64 0
  %28 = load i32, i32* %8, align 4
  %29 = sext i32 %28 to i64
  %30 = getelementptr inbounds double, double* %27, i64 %29
  %31 = load double, double* %30, align 8
  %32 = load double, double* %3, align 8
  %33 = fadd double %32, %31
  store double %33, double* %3, align 8
  br label %34

34:                                               ; preds = %21
  %35 = load i32, i32* %8, align 4
  %36 = add nsw i32 %35, 1
  store i32 %36, i32* %8, align 4
  br label %17

37:                                               ; preds = %17
  %38 = load i32, i32* %6, align 4
  %39 = sitofp i32 %38 to double
  %40 = load double, double* %3, align 8
  %41 = fdiv double %40, %39
  store double %41, double* %3, align 8
  store i32 1, i32* %8, align 4
  store double 0.000000e+00, double* %4, align 8
  br label %42

42:                                               ; preds = %58, %37
  %43 = load i32, i32* %8, align 4
  %44 = load i32, i32* %6, align 4
  %45 = icmp sle i32 %43, %44
  br i1 %45, label %46, label %61

46:                                               ; preds = %42
  %47 = getelementptr inbounds [10000 x double], [10000 x double]* %2, i64 0, i64 0
  %48 = load i32, i32* %8, align 4
  %49 = sext i32 %48 to i64
  %50 = getelementptr inbounds double, double* %47, i64 %49
  %51 = load double, double* %50, align 8
  %52 = load double, double* %3, align 8
  %53 = fsub double %51, %52
  %54 = call i32 (double, ...) bitcast (i32 (...)* @d to i32 (double, ...)*)(double %53)
  %55 = sitofp i32 %54 to double
  %56 = load double, double* %4, align 8
  %57 = fadd double %56, %55
  store double %57, double* %4, align 8
  br label %58

58:                                               ; preds = %46
  %59 = load i32, i32* %8, align 4
  %60 = add nsw i32 %59, 1
  store i32 %60, i32* %8, align 4
  br label %42

61:                                               ; preds = %42
  %62 = load i32, i32* %6, align 4
  %63 = sitofp i32 %62 to double
  %64 = load double, double* %4, align 8
  %65 = fdiv double %64, %63
  store double %65, double* %4, align 8
  %66 = load double, double* %4, align 8
  %67 = call double @sqrt(double %66) #3
  store double %67, double* %4, align 8
  %68 = load i32, i32* %9, align 4
  %69 = icmp eq i32 %68, 1
  br i1 %69, label %70, label %72

70:                                               ; preds = %61
  %71 = call i32 (i8*, ...) @printf(i8* getelementptr inbounds ([2 x i8], [2 x i8]* @.str.2, i64 0, i64 0))
  br label %72

72:                                               ; preds = %70, %61
  store i32 1, i32* %9, align 4
  %73 = load double, double* %4, align 8
  %74 = call i32 (i8*, ...) @printf(i8* getelementptr inbounds ([7 x i8], [7 x i8]* @.str.3, i64 0, i64 0), double %73)
  br label %75

75:                                               ; preds = %72
  %76 = load i32, i32* %7, align 4
  %77 = add nsw i32 %76, 1
  store i32 %77, i32* %7, align 4
  br label %11

78:                                               ; preds = %11
  ret i32 0
}

declare dso_local i32 @__isoc99_scanf(i8*, ...) #1

declare dso_local i32 @d(...) #1

; Function Attrs: nounwind
declare dso_local double @sqrt(double) #2

declare dso_local i32 @printf(i8*, ...) #1


!llvm.module.flags = !{!0}
!llvm.ident = !{!1}

!0 = !{i32 1, !"wchar_size", i32 4}
!1 = !{!"clang version 10.0.0-4ubuntu1 "}
